target datalayout = "e-m:e-p270:32:32-p271:32:32-p272:64:64-i64:64-i128:128-f80:128-n8:16:32:64-S128"
target triple = "x86_64-pc-linux-gnu"

%struct._zend_phpdbg_globals = type { [11 x %struct._zend_array], %struct._zend_array, %struct._zend_array, ptr, ptr, %struct.phpdbg_frame_t, i32, ptr, %struct.phpdbg_lexer_data, ptr, %struct.sigaction, i32, i64, %struct.phpdbg_btree, %struct.phpdbg_btree, %struct._zend_array, %struct._zend_array, %struct._zend_array, %struct._zend_array, ptr, ptr, i8, ptr, ptr, ptr, i64, ptr, %struct._zval_struct, i32, i32, i8, i8, ptr, ptr, ptr, %struct._zend_array, ptr, ptr, ptr, [3 x %struct.anon.8], ptr, %struct.anon.9, i64, [2 x ptr], [3 x ptr], ptr, i8, ptr, ptr, [500 x i8], i32, %struct.phpdbg_signal_safe_mem, ptr, i64, ptr, i64 }
%struct.phpdbg_frame_t = type { i32, ptr, ptr }
%struct.phpdbg_lexer_data = type { i32, ptr, ptr, ptr, ptr, i32 }
%struct.sigaction = type { %union.anon.2, %struct.__sigset_t, i32, ptr }
%union.anon.2 = type { ptr }
%struct.__sigset_t = type { [16 x i64] }
%struct.phpdbg_btree = type { i64, i64, i8, ptr }
%struct._zval_struct = type { %union._zend_value, %union.anon.4, %union.anon.7 }
%union._zend_value = type { i64 }
%union.anon.4 = type { i32 }
%union.anon.7 = type { i32 }
%struct._zend_array = type { %struct._zend_refcounted_h, %union.anon.0, i32, %union.anon.1, i32, i32, i32, i32, i64, ptr }
%struct._zend_refcounted_h = type { i32, %union.anon }
%union.anon = type { i32 }
%union.anon.0 = type { i32 }
%union.anon.1 = type { ptr }
%struct.anon.8 = type { i32 }
%struct.anon.9 = type { i8, i32, i32, ptr, i32 }
%struct.phpdbg_signal_safe_mem = type { ptr, i8, ptr, ptr }
%struct._zend_executor_globals = type { %struct._zval_struct, %struct._zval_struct, [32 x ptr], ptr, ptr, %struct._zend_array, %struct._zend_array, ptr, i32, i32, ptr, ptr, ptr, ptr, ptr, ptr, i64, ptr, ptr, i32, i32, i64, i32, i32, i32, i8, i8, %struct.zend_atomic_bool_s, %struct.zend_atomic_bool_s, ptr, i64, ptr, ptr, %struct._zend_array, %struct._zend_array, i32, i8, %struct._zval_struct, %struct._zval_struct, %struct._zend_stack, %struct._zend_stack, %struct._zend_stack, ptr, i32, i32, i64, ptr, ptr, ptr, %struct._zend_objects_store, ptr, ptr, ptr, [3 x %struct._zend_op], ptr, i8, i8, i64, i32, i32, ptr, [16 x %struct._HashTableIterator], ptr, %union._zend_function, %struct._zend_op, %struct._zend_array, i64, %struct.zend_get_gc_buffer, ptr, ptr, ptr, i64, i8, i32, ptr, ptr, i64, %struct._zend_call_stack, i64, i64, [6 x ptr] }
%struct.zend_atomic_bool_s = type { i8 }
%struct._zend_stack = type { i32, i32, i32, ptr }
%struct._zend_objects_store = type { ptr, i32, i32, i32 }
%struct._HashTableIterator = type { ptr, i32, i32 }
%union._zend_function = type { %struct._zend_op_array }
%struct._zend_op_array = type { i8, [3 x i8], i32, ptr, ptr, ptr, i32, i32, ptr, ptr, ptr, ptr, i32, i32, i32, i32, ptr, ptr, ptr, ptr, ptr, i32, i32, ptr, ptr, ptr, i32, i32, i32, i32, ptr, ptr, [6 x ptr] }
%struct._zend_op = type { ptr, %union._znode_op, %union._znode_op, %union._znode_op, i32, i32, i8, i8, i8, i8 }
%union._znode_op = type { i32 }
%struct.zend_get_gc_buffer = type { ptr, ptr, ptr }
%struct._zend_call_stack = type { ptr, i64 }
%struct._zend_execute_data = type { ptr, ptr, ptr, ptr, %struct._zval_struct, ptr, ptr, ptr, ptr }

@phpdbg_globals = external global %struct._zend_phpdbg_globals, align 8
@executor_globals = external global %struct._zend_executor_globals, align 8

; Function Attrs: nounwind uwtable
define hidden i32 @phpdbg_skip_line_helper() #0 {
  %1 = alloca ptr, align 8
  %2 = alloca i64, align 8
  %3 = alloca ptr, align 8
  %4 = alloca %struct._zval_struct, align 8
  %5 = alloca ptr, align 8
  %6 = alloca ptr, align 8
  %7 = alloca ptr, align 8
  %8 = alloca ptr, align 8
  %9 = alloca ptr, align 8
  %10 = load ptr, ptr getelementptr inbounds (%struct._zend_executor_globals, ptr @executor_globals, i32 0, i32 17), align 8
  store ptr %10, ptr %6, align 8
  br label %11

11:                                               ; preds = %26, %0
  %12 = load ptr, ptr %6, align 8
  %13 = getelementptr inbounds %struct._zend_execute_data, ptr %12, i32 0, i32 3
  %14 = load ptr, ptr %13, align 8
  %15 = icmp ne ptr %14, null
  br i1 %15, label %16, label %24

16:                                               ; preds = %11
  %17 = load ptr, ptr %6, align 8
  %18 = getelementptr inbounds %struct._zend_execute_data, ptr %17, i32 0, i32 3
  %19 = load ptr, ptr %18, align 8
  %20 = load i8, ptr %19, align 8
  %21 = zext i8 %20 to i32
  %22 = icmp ne i32 %21, 1
  %23 = xor i1 %22, true
  br label %24

24:                                               ; preds = %16, %11
  %25 = phi i1 [ true, %11 ], [ %23, %16 ]
  br i1 %25, label %26, label %32

26:                                               ; preds = %24
  %27 = load ptr, ptr %6, align 8
  %28 = getelementptr inbounds %struct._zend_execute_data, ptr %27, i32 0, i32 5
  %29 = load ptr, ptr %28, align 8
  store ptr %29, ptr %6, align 8
  %30 = load ptr, ptr %6, align 8
  %31 = icmp ne ptr %30, null
  call void @llvm.assume(i1 %31)
  br label %11

32:                                               ; preds = %24
  %33 = load ptr, ptr %6, align 8
  store ptr %33, ptr %7, align 8
  %34 = load ptr, ptr %7, align 8
  %35 = getelementptr inbounds %struct._zend_execute_data, ptr %34, i32 0, i32 3
  %36 = load ptr, ptr %35, align 8
  store ptr %36, ptr %8, align 8
  %37 = load ptr, ptr %8, align 8
  %38 = getelementptr inbounds %struct._zend_op_array, ptr %37, i32 0, i32 16
  %39 = load ptr, ptr %38, align 8
  store ptr %39, ptr %9, align 8
  %40 = load i64, ptr getelementptr inbounds (%struct._zend_phpdbg_globals, ptr @phpdbg_globals, i32 0, i32 53), align 8
  %41 = or i64 %40, 1048576
  store i64 %41, ptr getelementptr inbounds (%struct._zend_phpdbg_globals, ptr @phpdbg_globals, i32 0, i32 53), align 8
  %42 = load ptr, ptr %7, align 8
  store ptr %42, ptr getelementptr inbounds (%struct._zend_phpdbg_globals, ptr @phpdbg_globals, i32 0, i32 3), align 8
  br label %43

43:                                               ; preds = %102, %32
  %44 = load ptr, ptr %9, align 8
  %45 = getelementptr inbounds %struct._zend_op, ptr %44, i32 0, i32 5
  %46 = load i32, ptr %45, align 8
  %47 = load ptr, ptr %7, align 8
  %48 = getelementptr inbounds %struct._zend_execute_data, ptr %47, i32 0, i32 0
  %49 = load ptr, ptr %48, align 8
  %50 = getelementptr inbounds %struct._zend_op, ptr %49, i32 0, i32 5
  %51 = load i32, ptr %50, align 8
  %52 = icmp ne i32 %46, %51
  br i1 %52, label %89, label %53

53:                                               ; preds = %43
  %54 = load ptr, ptr %9, align 8
  %55 = getelementptr inbounds %struct._zend_op, ptr %54, i32 0, i32 6
  %56 = load i8, ptr %55, align 4
  %57 = zext i8 %56 to i32
  %58 = icmp eq i32 %57, 62
  br i1 %58, label %89, label %59

59:                                               ; preds = %53
  %60 = load ptr, ptr %9, align 8
  %61 = getelementptr inbounds %struct._zend_op, ptr %60, i32 0, i32 6
  %62 = load i8, ptr %61, align 4
  %63 = zext i8 %62 to i32
  %64 = icmp eq i32 %63, 163
  br i1 %64, label %89, label %65

65:                                               ; preds = %59
  %66 = load ptr, ptr %9, align 8
  %67 = getelementptr inbounds %struct._zend_op, ptr %66, i32 0, i32 6
  %68 = load i8, ptr %67, align 4
  %69 = zext i8 %68 to i32
  %70 = icmp eq i32 %69, 161
  br i1 %70, label %89, label %71

71:                                               ; preds = %65
  %72 = load ptr, ptr %9, align 8
  %73 = getelementptr inbounds %struct._zend_op, ptr %72, i32 0, i32 6
  %74 = load i8, ptr %73, align 4
  %75 = zext i8 %74 to i32
  %76 = icmp eq i32 %75, 79
  br i1 %76, label %89, label %77

77:                                               ; preds = %71
  %78 = load ptr, ptr %9, align 8
  %79 = getelementptr inbounds %struct._zend_op, ptr %78, i32 0, i32 6
  %80 = load i8, ptr %79, align 4
  %81 = zext i8 %80 to i32
  %82 = icmp eq i32 %81, 160
  br i1 %82, label %89, label %83

83:                                               ; preds = %77
  %84 = load ptr, ptr %9, align 8
  %85 = getelementptr inbounds %struct._zend_op, ptr %84, i32 0, i32 6
  %86 = load i8, ptr %85, align 4
  %87 = zext i8 %86 to i32
  %88 = icmp eq i32 %87, 166
  br i1 %88, label %89, label %101

89:                                               ; preds = %83, %77, %71, %65, %59, %53, %43
  %90 = load ptr, ptr %9, align 8
  %91 = ptrtoint ptr %90 to i64
  %92 = load ptr, ptr %9, align 8
  store ptr getelementptr inbounds (%struct._zend_phpdbg_globals, ptr @phpdbg_globals, i32 0, i32 2), ptr %1, align 8
  store i64 %91, ptr %2, align 8
  store ptr %92, ptr %3, align 8
  %93 = load ptr, ptr %3, align 8
  store ptr %93, ptr %4, align 8
  %94 = getelementptr inbounds %struct._zval_struct, ptr %4, i32 0, i32 1
  store i32 13, ptr %94, align 8
  %95 = load ptr, ptr %1, align 8
  %96 = load i64, ptr %2, align 8
  %97 = call ptr @zend_hash_index_update(ptr noundef %95, i64 noundef %96, ptr noundef %4) #15
  store ptr %97, ptr %5, align 8
  %98 = load ptr, ptr %5, align 8
  %99 = load ptr, ptr %98, align 8
  %100 = icmp ne ptr %99, null
  call void @llvm.assume(i1 %100)
  br label %101

101:                                              ; preds = %89, %83
  br label %102

102:                                              ; preds = %101
  %103 = load ptr, ptr %9, align 8
  %104 = getelementptr inbounds %struct._zend_op, ptr %103, i32 1
  store ptr %104, ptr %9, align 8
  %105 = load ptr, ptr %8, align 8
  %106 = getelementptr inbounds %struct._zend_op_array, ptr %105, i32 0, i32 16
  %107 = load ptr, ptr %106, align 8
  %108 = load ptr, ptr %8, align 8
  %109 = getelementptr inbounds %struct._zend_op_array, ptr %108, i32 0, i32 15
  %110 = load i32, ptr %109, align 4
  %111 = zext i32 %110 to i64
  %112 = getelementptr inbounds %struct._zend_op, ptr %107, i64 %111
  %113 = icmp ult ptr %104, %112
  br i1 %113, label %43, label %114

114:                                              ; preds = %102
  ret i32 3
}