; Function Attrs: nounwind uwtable
define hidden noundef i32 @phpdbg_skip_line_helper() local_unnamed_addr #0 {
  %1 = alloca %struct._zval_struct, align 8
  br label %2

2:                                                ; preds = %.critedge, %0
  %.024.in = phi ptr [ getelementptr inbounds (%struct._zend_executor_globals, ptr @executor_globals, i64 0, i32 17), %0 ], [ %7, %.critedge ]
  %.024 = load ptr, ptr %.024.in, align 8
  %3 = getelementptr inbounds i8, ptr %.024, i64 24
  %4 = load ptr, ptr %3, align 8
  %.not = icmp eq ptr %4, null
  br i1 %.not, label %.critedge, label %5

5:                                                ; preds = %2
  %6 = load i8, ptr %4, align 8
  %.not28 = icmp eq i8 %6, 1
  br i1 %.not28, label %.critedge, label %8

.critedge:                                        ; preds = %2, %5
  %7 = getelementptr inbounds i8, ptr %.024, i64 48
  br label %2

8:                                                ; preds = %5
  %9 = getelementptr inbounds i8, ptr %4, i64 88
  %10 = load ptr, ptr %9, align 8
  %11 = load i64, ptr getelementptr inbounds (%struct._zend_phpdbg_globals, ptr @phpdbg_globals, i64 0, i32 53), align 8
  %12 = or i64 %11, 1048576
  store i64 %12, ptr getelementptr inbounds (%struct._zend_phpdbg_globals, ptr @phpdbg_globals, i64 0, i32 53), align 8
  store ptr %.024, ptr getelementptr inbounds (%struct._zend_phpdbg_globals, ptr @phpdbg_globals, i64 0, i32 3), align 8
  %13 = getelementptr inbounds i8, ptr %1, i64 8
  %14 = getelementptr inbounds i8, ptr %4, i64 84
  br label %15

15:                                               ; preds = %29, %8
  %.0 = phi ptr [ %10, %8 ], [ %30, %29 ]
  %16 = getelementptr inbounds i8, ptr %.0, i64 24
  %17 = load i32, ptr %16, align 8
  %18 = load ptr, ptr %.024, align 8
  %19 = getelementptr inbounds i8, ptr %18, i64 24
  %20 = load i32, ptr %19, align 8
  %.not29 = icmp eq i32 %17, %20
  br i1 %.not29, label %21, label %24

21:                                               ; preds = %15
  %22 = getelementptr inbounds i8, ptr %.0, i64 28
  %23 = load i8, ptr %22, align 4
  switch i8 %23, label %29 [
    i8 62, label %24
    i8 -93, label %24
    i8 -95, label %24
    i8 79, label %24
    i8 -96, label %24
    i8 -90, label %24
  ]

24:                                               ; preds = %21, %21, %21, %21, %21, %21, %15
  %25 = ptrtoint ptr %.0 to i64
  store ptr %.0, ptr %1, align 8
  store i32 13, ptr %13, align 8
  %26 = call ptr @zend_hash_index_update(ptr noundef nonnull getelementptr inbounds (%struct._zend_phpdbg_globals, ptr @phpdbg_globals, i64 0, i32 2), i64 noundef %25, ptr noundef nonnull %1) #24
  %27 = load ptr, ptr %26, align 8
  %28 = icmp ne ptr %27, null
  call void @llvm.assume(i1 %28)
  br label %29

29:                                               ; preds = %21, %24
  %30 = getelementptr inbounds i8, ptr %.0, i64 32
  %31 = load ptr, ptr %9, align 8
  %32 = load i32, ptr %14, align 4
  %33 = zext i32 %32 to i64
  %34 = getelementptr inbounds %struct._zend_op, ptr %31, i64 %33
  %35 = icmp ult ptr %30, %34
  br i1 %35, label %15, label %36

36:                                               ; preds = %29
  ret i32 3
}